target datalayout = "e-m:e-p270:32:32-p271:32:32-p272:64:64-i64:64-i128:128-f80:128-n8:16:32:64-S128"
target triple = "x86_64-pc-linux-gnu"

%struct.ucs1lib__pre = type { ptr, i64, i64, i64, i64, i32, [64 x i8] }

; Function Attrs: nounwind uwtable
define internal i64 @ucs1lib__two_way_count(ptr noundef %0, i64 noundef %1, ptr noundef %2, i64 noundef %3, i64 noundef %4) #0 {
  %6 = alloca i64, align 8
  %7 = alloca ptr, align 8
  %8 = alloca i64, align 8
  %9 = alloca ptr, align 8
  %10 = alloca i64, align 8
  %11 = alloca i64, align 8
  %12 = alloca %struct.ucs1lib__pre, align 8
  %13 = alloca i64, align 8
  %14 = alloca i64, align 8
  %15 = alloca i64, align 8
  %16 = alloca i32, align 4
  store ptr %0, ptr %7, align 8, !tbaa !189
  store i64 %1, ptr %8, align 8, !tbaa !185
  store ptr %2, ptr %9, align 8, !tbaa !189
  store i64 %3, ptr %10, align 8, !tbaa !185
  store i64 %4, ptr %11, align 8, !tbaa !185
  call void @llvm.lifetime.start.p0(i64 112, ptr %12) #12
  %17 = load ptr, ptr %9, align 8, !tbaa !189
  %18 = load i64, ptr %10, align 8, !tbaa !185
  call void @ucs1lib__preprocess(ptr noundef %17, i64 noundef %18, ptr noundef %12)
  call void @llvm.lifetime.start.p0(i64 8, ptr %13) #12
  store i64 0, ptr %13, align 8, !tbaa !185
  call void @llvm.lifetime.start.p0(i64 8, ptr %14) #12
  store i64 0, ptr %14, align 8, !tbaa !185
  br label %19

19:                                               ; preds = %48, %5
  br label %20

20:                                               ; preds = %19
  call void @llvm.lifetime.start.p0(i64 8, ptr %15) #12
  %21 = load ptr, ptr %7, align 8, !tbaa !189
  %22 = load i64, ptr %13, align 8, !tbaa !185
  %23 = getelementptr i8, ptr %21, i64 %22
  %24 = load i64, ptr %8, align 8, !tbaa !185
  %25 = load i64, ptr %13, align 8, !tbaa !185
  %26 = sub i64 %24, %25
  %27 = call i64 @ucs1lib__two_way(ptr noundef %23, i64 noundef %26, ptr noundef %12)
  store i64 %27, ptr %15, align 8, !tbaa !185
  %28 = load i64, ptr %15, align 8, !tbaa !185
  %29 = icmp eq i64 %28, -1
  br i1 %29, label %30, label %32

30:                                               ; preds = %20
  %31 = load i64, ptr %14, align 8, !tbaa !185
  store i64 %31, ptr %6, align 8
  store i32 1, ptr %16, align 4
  br label %46

32:                                               ; preds = %20
  %33 = load i64, ptr %14, align 8, !tbaa !185
  %34 = add i64 %33, 1
  store i64 %34, ptr %14, align 8, !tbaa !185
  %35 = load i64, ptr %14, align 8, !tbaa !185
  %36 = load i64, ptr %11, align 8, !tbaa !185
  %37 = icmp eq i64 %35, %36
  br i1 %37, label %38, label %40

38:                                               ; preds = %32
  %39 = load i64, ptr %11, align 8, !tbaa !185
  store i64 %39, ptr %6, align 8
  store i32 1, ptr %16, align 4
  br label %46

40:                                               ; preds = %32
  %41 = load i64, ptr %15, align 8, !tbaa !185
  %42 = load i64, ptr %10, align 8, !tbaa !185
  %43 = add i64 %41, %42
  %44 = load i64, ptr %13, align 8, !tbaa !185
  %45 = add i64 %44, %43
  store i64 %45, ptr %13, align 8, !tbaa !185
  store i32 0, ptr %16, align 4
  br label %46

46:                                               ; preds = %40, %38, %30
  call void @llvm.lifetime.end.p0(i64 8, ptr %15) #12
  %47 = load i32, ptr %16, align 4
  switch i32 %47, label %49 [
    i32 0, label %48
  ]

48:                                               ; preds = %46
  br label %19

49:                                               ; preds = %46
  call void @llvm.lifetime.end.p0(i64 8, ptr %14) #12
  call void @llvm.lifetime.end.p0(i64 8, ptr %13) #12
  call void @llvm.lifetime.end.p0(i64 112, ptr %12) #12
  %50 = load i64, ptr %6, align 8
  ret i64 %50
}