; Function Attrs: nofree nounwind memory(read, argmem: readwrite, inaccessiblemem: none) uwtable
define internal fastcc i64 @ucs1lib__two_way_count(ptr noundef %0, i64 noundef %1, ptr noundef %2, i64 noundef range(i64 6, -9223372036854775808) %3, i64 noundef %4) unnamed_addr #31 {
  %6 = alloca %struct.ucs1lib__pre, align 8
  call void @llvm.lifetime.start.p0(i64 112, ptr nonnull %6) #41
  call fastcc void @ucs1lib__preprocess(ptr noundef %2, i64 noundef %3, ptr noundef %6)
  %7 = call fastcc i64 @ucs1lib__two_way(ptr noundef %0, i64 noundef %1, ptr noundef %6)
  %8 = icmp eq i64 %7, -1
  br i1 %8, label %._crit_edge, label %.lr.ph

.lr.ph:                                           ; preds = %5, %12
  %9 = phi i64 [ %17, %12 ], [ %7, %5 ]
  %.01731 = phi i64 [ %10, %12 ], [ 0, %5 ]
  %.01930 = phi i64 [ %14, %12 ], [ 0, %5 ]
  %10 = add i64 %.01731, 1
  %11 = icmp eq i64 %10, %4
  br i1 %11, label %._crit_edge, label %12

12:                                               ; preds = %.lr.ph
  %13 = add i64 %.01930, %3
  %14 = add i64 %13, %9
  %15 = getelementptr i8, ptr %0, i64 %14
  %16 = sub i64 %1, %14
  %17 = call fastcc i64 @ucs1lib__two_way(ptr noundef %15, i64 noundef %16, ptr noundef %6)
  %18 = icmp eq i64 %17, -1
  br i1 %18, label %._crit_edge, label %.lr.ph

._crit_edge:                                      ; preds = %.lr.ph, %12, %5
  %.1.ph = phi i64 [ 0, %5 ], [ %10, %12 ], [ %4, %.lr.ph ]
  call void @llvm.lifetime.end.p0(i64 112, ptr nonnull %6) #41
  ret i64 %.1.ph
}